target datalayout = "e-m:e-p270:32:32-p271:32:32-p272:64:64-i64:64-i128:128-f80:128-n8:16:32:64-S128"
target triple = "x86_64-pc-linux-gnu"

%struct.RelationData = type { %struct.RelFileLocator, ptr, i32, i32, i8, i8, i8, i8, i8, i32, i32, i32, i32, ptr, ptr, i32, %struct.LockInfoData, ptr, ptr, ptr, ptr, ptr, i8, ptr, ptr, ptr, ptr, ptr, ptr, i32, ptr, i8, ptr, ptr, i32, i8, i32, ptr, i8, ptr, ptr, ptr, ptr, ptr, ptr, ptr, i32, ptr, ptr, ptr, ptr, ptr, ptr, ptr, ptr, ptr, ptr, ptr, ptr, ptr, ptr, ptr, ptr, ptr, ptr, ptr, i32, i8, ptr }
%struct.RelFileLocator = type { i32, i32, i32 }
%struct.LockInfoData = type { %struct.LockRelId }
%struct.LockRelId = type { i32, i32 }
%struct.dlist_node = type { ptr, ptr }
%struct.PgStat_TableStatus = type { i32, i8, ptr, %struct.PgStat_TableCounts, ptr }
%struct.PgStat_TableCounts = type { i64, i64, i64, i64, i64, i64, i64, i64, i8, i64, i64, i64, i64, i64 }
%struct.PgStat_TableXactStatus = type { i64, i64, i64, i8, i64, i64, i64, i32, ptr, ptr, ptr }
%struct.PgStat_SubXactStatus = type { i32, ptr, %struct.dclist_head, ptr }
%struct.dclist_head = type { %struct.dlist_head, i32 }
%struct.dlist_head = type { %struct.dlist_node }

@TopTransactionContext = external global ptr, align 8

; Function Attrs: nounwind uwtable
define internal void @add_tabstat_xact_level(ptr noundef %0, i32 noundef %1) #0 {
  %3 = alloca ptr, align 8
  %4 = alloca i32, align 4
  %5 = alloca ptr, align 8
  %6 = alloca ptr, align 8
  store ptr %0, ptr %3, align 8
  store i32 %1, ptr %4, align 4
  call void @llvm.lifetime.start.p0(i64 8, ptr %5) #6
  call void @llvm.lifetime.start.p0(i64 8, ptr %6) #6
  %7 = load i32, ptr %4, align 4
  %8 = call ptr @pgstat_get_xact_stack_level(i32 noundef %7)
  store ptr %8, ptr %5, align 8
  %9 = load ptr, ptr @TopTransactionContext, align 8
  %10 = call ptr @MemoryContextAllocZero(ptr noundef %9, i64 noundef 88)
  store ptr %10, ptr %6, align 8
  %11 = load i32, ptr %4, align 4
  %12 = load ptr, ptr %6, align 8
  %13 = getelementptr inbounds nuw %struct.PgStat_TableXactStatus, ptr %12, i32 0, i32 7
  store i32 %11, ptr %13, align 8
  %14 = load ptr, ptr %3, align 8
  %15 = getelementptr inbounds nuw %struct.PgStat_TableStatus, ptr %14, i32 0, i32 2
  %16 = load ptr, ptr %15, align 8
  %17 = load ptr, ptr %6, align 8
  %18 = getelementptr inbounds nuw %struct.PgStat_TableXactStatus, ptr %17, i32 0, i32 8
  store ptr %16, ptr %18, align 8
  %19 = load ptr, ptr %3, align 8
  %20 = load ptr, ptr %6, align 8
  %21 = getelementptr inbounds nuw %struct.PgStat_TableXactStatus, ptr %20, i32 0, i32 9
  store ptr %19, ptr %21, align 8
  %22 = load ptr, ptr %5, align 8
  %23 = getelementptr inbounds nuw %struct.PgStat_SubXactStatus, ptr %22, i32 0, i32 3
  %24 = load ptr, ptr %23, align 8
  %25 = load ptr, ptr %6, align 8
  %26 = getelementptr inbounds nuw %struct.PgStat_TableXactStatus, ptr %25, i32 0, i32 10
  store ptr %24, ptr %26, align 8
  %27 = load ptr, ptr %6, align 8
  %28 = load ptr, ptr %5, align 8
  %29 = getelementptr inbounds nuw %struct.PgStat_SubXactStatus, ptr %28, i32 0, i32 3
  store ptr %27, ptr %29, align 8
  %30 = load ptr, ptr %6, align 8
  %31 = load ptr, ptr %3, align 8
  %32 = getelementptr inbounds nuw %struct.PgStat_TableStatus, ptr %31, i32 0, i32 2
  store ptr %30, ptr %32, align 8
  call void @llvm.lifetime.end.p0(i64 8, ptr %6) #6
  call void @llvm.lifetime.end.p0(i64 8, ptr %5) #6
  ret void
}

; Function Attrs: nounwind uwtable
define internal void @save_truncdrop_counters(ptr noundef %0, i1 noundef zeroext %1) #0 {
  %3 = alloca ptr, align 8
  %4 = alloca i8, align 1
  store ptr %0, ptr %3, align 8
  %5 = zext i1 %1 to i8
  store i8 %5, ptr %4, align 1
  %6 = load ptr, ptr %3, align 8
  %7 = getelementptr inbounds nuw %struct.PgStat_TableXactStatus, ptr %6, i32 0, i32 3
  %8 = load i8, ptr %7, align 8, !range !4, !noundef !5
  %9 = trunc i8 %8 to i1
  br i1 %9, label %10, label %13

10:                                               ; preds = %2
  %11 = load i8, ptr %4, align 1, !range !4, !noundef !5
  %12 = trunc i8 %11 to i1
  br i1 %12, label %13, label %31

13:                                               ; preds = %10, %2
  %14 = load ptr, ptr %3, align 8
  %15 = getelementptr inbounds nuw %struct.PgStat_TableXactStatus, ptr %14, i32 0, i32 0
  %16 = load i64, ptr %15, align 8
  %17 = load ptr, ptr %3, align 8
  %18 = getelementptr inbounds nuw %struct.PgStat_TableXactStatus, ptr %17, i32 0, i32 4
  store i64 %16, ptr %18, align 8
  %19 = load ptr, ptr %3, align 8
  %20 = getelementptr inbounds nuw %struct.PgStat_TableXactStatus, ptr %19, i32 0, i32 1
  %21 = load i64, ptr %20, align 8
  %22 = load ptr, ptr %3, align 8
  %23 = getelementptr inbounds nuw %struct.PgStat_TableXactStatus, ptr %22, i32 0, i32 5
  store i64 %21, ptr %23, align 8
  %24 = load ptr, ptr %3, align 8
  %25 = getelementptr inbounds nuw %struct.PgStat_TableXactStatus, ptr %24, i32 0, i32 2
  %26 = load i64, ptr %25, align 8
  %27 = load ptr, ptr %3, align 8
  %28 = getelementptr inbounds nuw %struct.PgStat_TableXactStatus, ptr %27, i32 0, i32 6
  store i64 %26, ptr %28, align 8
  %29 = load ptr, ptr %3, align 8
  %30 = getelementptr inbounds nuw %struct.PgStat_TableXactStatus, ptr %29, i32 0, i32 3
  store i8 1, ptr %30, align 8
  br label %31

31:                                               ; preds = %13, %10
  ret void
}

; Function Attrs: nounwind uwtable
define internal void @ensure_tabstat_xact_level(ptr noundef %0) #0 {
  %2 = alloca ptr, align 8
  %3 = alloca i32, align 4
  store ptr %0, ptr %2, align 8
  call void @llvm.lifetime.start.p0(i64 4, ptr %3) #6
  %4 = call i32 @GetCurrentTransactionNestLevel()
  store i32 %4, ptr %3, align 4
  %5 = load ptr, ptr %2, align 8
  %6 = getelementptr inbounds nuw %struct.PgStat_TableStatus, ptr %5, i32 0, i32 2
  %7 = load ptr, ptr %6, align 8
  %8 = icmp eq ptr %7, null
  br i1 %8, label %17, label %9

9:                                                ; preds = %1
  %10 = load ptr, ptr %2, align 8
  %11 = getelementptr inbounds nuw %struct.PgStat_TableStatus, ptr %10, i32 0, i32 2
  %12 = load ptr, ptr %11, align 8
  %13 = getelementptr inbounds nuw %struct.PgStat_TableXactStatus, ptr %12, i32 0, i32 7
  %14 = load i32, ptr %13, align 8
  %15 = load i32, ptr %3, align 4
  %16 = icmp ne i32 %14, %15
  br i1 %16, label %17, label %20

17:                                               ; preds = %9, %1
  %18 = load ptr, ptr %2, align 8
  %19 = load i32, ptr %3, align 4
  call void @add_tabstat_xact_level(ptr noundef %18, i32 noundef %19)
  br label %20

20:                                               ; preds = %17, %9
  call void @llvm.lifetime.end.p0(i64 4, ptr %3) #6
  ret void
}

; Function Attrs: nounwind uwtable
define dso_local void @pgstat_count_truncate(ptr noundef %0) #0 {
  %2 = alloca ptr, align 8
  %3 = alloca ptr, align 8
  store ptr %0, ptr %2, align 8
  %4 = load ptr, ptr %2, align 8
  %5 = getelementptr inbounds nuw %struct.RelationData, ptr %4, i32 0, i32 68
  %6 = load ptr, ptr %5, align 8
  %7 = icmp ne ptr %6, null
  %8 = zext i1 %7 to i32
  %9 = icmp ne i32 %8, 0
  %10 = zext i1 %9 to i32
  %11 = sext i32 %10 to i64
  %12 = call i64 @llvm.expect.i64(i64 %11, i64 1)
  %13 = icmp ne i64 %12, 0
  br i1 %13, label %14, label %15

14:                                               ; preds = %1
  br i1 true, label %23, label %43

15:                                               ; preds = %1
  %16 = load ptr, ptr %2, align 8
  %17 = getelementptr inbounds nuw %struct.RelationData, ptr %16, i32 0, i32 67
  %18 = load i8, ptr %17, align 4, !range !4, !noundef !5
  %19 = trunc i8 %18 to i1
  br i1 %19, label %20, label %22

20:                                               ; preds = %15
  %21 = load ptr, ptr %2, align 8
  call void @pgstat_assoc_relation(ptr noundef %21)
  br i1 true, label %23, label %43

22:                                               ; preds = %15
  br i1 false, label %23, label %43

23:                                               ; preds = %22, %20, %14
  call void @llvm.lifetime.start.p0(i64 8, ptr %3) #6
  %24 = load ptr, ptr %2, align 8
  %25 = getelementptr inbounds nuw %struct.RelationData, ptr %24, i32 0, i32 68
  %26 = load ptr, ptr %25, align 8
  store ptr %26, ptr %3, align 8
  %27 = load ptr, ptr %3, align 8
  call void @ensure_tabstat_xact_level(ptr noundef %27)
  %28 = load ptr, ptr %3, align 8
  %29 = getelementptr inbounds nuw %struct.PgStat_TableStatus, ptr %28, i32 0, i32 2
  %30 = load ptr, ptr %29, align 8
  call void @save_truncdrop_counters(ptr noundef %30, i1 noundef zeroext false)
  %31 = load ptr, ptr %3, align 8
  %32 = getelementptr inbounds nuw %struct.PgStat_TableStatus, ptr %31, i32 0, i32 2
  %33 = load ptr, ptr %32, align 8
  %34 = getelementptr inbounds nuw %struct.PgStat_TableXactStatus, ptr %33, i32 0, i32 0
  store i64 0, ptr %34, align 8
  %35 = load ptr, ptr %3, align 8
  %36 = getelementptr inbounds nuw %struct.PgStat_TableStatus, ptr %35, i32 0, i32 2
  %37 = load ptr, ptr %36, align 8
  %38 = getelementptr inbounds nuw %struct.PgStat_TableXactStatus, ptr %37, i32 0, i32 1
  store i64 0, ptr %38, align 8
  %39 = load ptr, ptr %3, align 8
  %40 = getelementptr inbounds nuw %struct.PgStat_TableStatus, ptr %39, i32 0, i32 2
  %41 = load ptr, ptr %40, align 8
  %42 = getelementptr inbounds nuw %struct.PgStat_TableXactStatus, ptr %41, i32 0, i32 2
  store i64 0, ptr %42, align 8
  call void @llvm.lifetime.end.p0(i64 8, ptr %3) #6
  br label %43

43:                                               ; preds = %23, %22, %20, %14
  ret void
}