; Function Attrs: nounwind uwtable
define dso_local void @pgstat_count_truncate(ptr noundef %0) local_unnamed_addr #0 {
  %2 = getelementptr inbounds nuw i8, ptr %0, i64 480
  %3 = load ptr, ptr %2, align 8
  %.not = icmp eq ptr %3, null
  br i1 %.not, label %4, label %9, !prof !6

4:                                                ; preds = %1
  %5 = getelementptr inbounds nuw i8, ptr %0, i64 476
  %6 = load i8, ptr %5, align 4, !range !4, !noundef !5
  %7 = trunc nuw i8 %6 to i1
  br i1 %7, label %8, label %47

8:                                                ; preds = %4
  tail call void @pgstat_assoc_relation(ptr noundef nonnull %0)
  %.pre = load ptr, ptr %2, align 8
  br label %9

9:                                                ; preds = %1, %8
  %10 = phi ptr [ %3, %1 ], [ %.pre, %8 ]
  %11 = tail call i32 @GetCurrentTransactionNestLevel() #9
  %12 = getelementptr inbounds nuw i8, ptr %10, i64 8
  %13 = load ptr, ptr %12, align 8
  %14 = icmp eq ptr %13, null
  br i1 %14, label %18, label %15

15:                                               ; preds = %9
  %16 = getelementptr inbounds nuw i8, ptr %13, i64 56
  %17 = load i32, ptr %16, align 8
  %.not.i = icmp eq i32 %17, %11
  br i1 %.not.i, label %ensure_tabstat_xact_level.exit, label %18

18:                                               ; preds = %15, %9
  %19 = tail call ptr @pgstat_get_xact_stack_level(i32 noundef %11) #9
  %20 = load ptr, ptr @TopTransactionContext, align 8
  %21 = tail call ptr @MemoryContextAllocZero(ptr noundef %20, i64 noundef 88) #9
  %22 = getelementptr inbounds nuw i8, ptr %21, i64 56
  store i32 %11, ptr %22, align 8
  %23 = load ptr, ptr %12, align 8
  %24 = getelementptr inbounds nuw i8, ptr %21, i64 64
  store ptr %23, ptr %24, align 8
  %25 = getelementptr inbounds nuw i8, ptr %21, i64 72
  store ptr %10, ptr %25, align 8
  %26 = getelementptr inbounds nuw i8, ptr %19, i64 40
  %27 = load ptr, ptr %26, align 8
  %28 = getelementptr inbounds nuw i8, ptr %21, i64 80
  store ptr %27, ptr %28, align 8
  store ptr %21, ptr %26, align 8
  store ptr %21, ptr %12, align 8
  br label %ensure_tabstat_xact_level.exit

ensure_tabstat_xact_level.exit:                   ; preds = %15, %18
  %29 = phi ptr [ %13, %15 ], [ %21, %18 ]
  %30 = getelementptr inbounds nuw i8, ptr %29, i64 24
  %31 = load i8, ptr %30, align 8, !range !4, !noundef !5
  %32 = trunc nuw i8 %31 to i1
  br i1 %32, label %save_truncdrop_counters.exit, label %33

33:                                               ; preds = %ensure_tabstat_xact_level.exit
  %34 = load i64, ptr %29, align 8
  %35 = getelementptr inbounds nuw i8, ptr %29, i64 32
  store i64 %34, ptr %35, align 8
  %36 = getelementptr inbounds nuw i8, ptr %29, i64 8
  %37 = load i64, ptr %36, align 8
  %38 = getelementptr inbounds nuw i8, ptr %29, i64 40
  store i64 %37, ptr %38, align 8
  %39 = getelementptr inbounds nuw i8, ptr %29, i64 16
  %40 = load i64, ptr %39, align 8
  %41 = getelementptr inbounds nuw i8, ptr %29, i64 48
  store i64 %40, ptr %41, align 8
  store i8 1, ptr %30, align 8
  %.pre10 = load ptr, ptr %12, align 8
  br label %save_truncdrop_counters.exit

save_truncdrop_counters.exit:                     ; preds = %ensure_tabstat_xact_level.exit, %33
  %42 = phi ptr [ %29, %ensure_tabstat_xact_level.exit ], [ %.pre10, %33 ]
  store i64 0, ptr %42, align 8
  %43 = load ptr, ptr %12, align 8
  %44 = getelementptr inbounds nuw i8, ptr %43, i64 8
  store i64 0, ptr %44, align 8
  %45 = load ptr, ptr %12, align 8
  %46 = getelementptr inbounds nuw i8, ptr %45, i64 16
  store i64 0, ptr %46, align 8
  br label %47

47:                                               ; preds = %4, %save_truncdrop_counters.exit
  ret void
}